target datalayout = "e-m:e-p270:32:32-p271:32:32-p272:64:64-i64:64-i128:128-f80:128-n8:16:32:64-S128"
target triple = "x86_64-pc-linux-gnu"

%struct.KDF_SCRYPT = type { ptr, ptr, ptr, i64, ptr, i64, i64, i64, i64, i64, ptr }

@.str = private unnamed_addr constant [51 x i8] c"../openssl/providers/implementations/kdfs/scrypt.c\00", align 1
@.str.1 = private unnamed_addr constant [7 x i8] c"sha256\00", align 1
@__func__.set_digest = private unnamed_addr constant [11 x i8] c"set_digest\00", align 1

; Function Attrs: nounwind uwtable
define internal i32 @set_digest(ptr noundef %0) #0 {
  %2 = alloca i32, align 4
  %3 = alloca ptr, align 8
  store ptr %0, ptr %3, align 8, !tbaa !3
  %4 = load ptr, ptr %3, align 8, !tbaa !3
  %5 = getelementptr inbounds nuw %struct.KDF_SCRYPT, ptr %4, i32 0, i32 10
  %6 = load ptr, ptr %5, align 8, !tbaa !13
  call void @EVP_MD_free(ptr noundef %6)
  %7 = load ptr, ptr %3, align 8, !tbaa !3
  %8 = getelementptr inbounds nuw %struct.KDF_SCRYPT, ptr %7, i32 0, i32 0
  %9 = load ptr, ptr %8, align 8, !tbaa !7
  %10 = load ptr, ptr %3, align 8, !tbaa !3
  %11 = getelementptr inbounds nuw %struct.KDF_SCRYPT, ptr %10, i32 0, i32 1
  %12 = load ptr, ptr %11, align 8, !tbaa !14
  %13 = call ptr @EVP_MD_fetch(ptr noundef %9, ptr noundef @.str.1, ptr noundef %12)
  %14 = load ptr, ptr %3, align 8, !tbaa !3
  %15 = getelementptr inbounds nuw %struct.KDF_SCRYPT, ptr %14, i32 0, i32 10
  store ptr %13, ptr %15, align 8, !tbaa !13
  %16 = load ptr, ptr %3, align 8, !tbaa !3
  %17 = getelementptr inbounds nuw %struct.KDF_SCRYPT, ptr %16, i32 0, i32 10
  %18 = load ptr, ptr %17, align 8, !tbaa !13
  %19 = icmp eq ptr %18, null
  br i1 %19, label %20, label %21

20:                                               ; preds = %1
  call void @ERR_new()
  call void @ERR_set_debug(ptr noundef @.str, i32 noundef 167, ptr noundef @__func__.set_digest)
  call void (i32, i32, ptr, ...) @ERR_set_error(i32 noundef 57, i32 noundef 147, ptr noundef null)
  store i32 0, ptr %2, align 4
  br label %22

21:                                               ; preds = %1
  store i32 1, ptr %2, align 4
  br label %22

22:                                               ; preds = %21, %20
  %23 = load i32, ptr %2, align 4
  ret i32 %23
}