; Function Attrs: nounwind uwtable
define internal fastcc range(i32 0, 2) i32 @set_digest(ptr noundef captures(none) %0) unnamed_addr #0 {
  %2 = getelementptr inbounds nuw i8, ptr %0, i64 80
  %3 = load ptr, ptr %2, align 8, !tbaa !16
  tail call void @EVP_MD_free(ptr noundef %3) #7
  %4 = load ptr, ptr %0, align 8, !tbaa !3
  %5 = getelementptr inbounds nuw i8, ptr %0, i64 8
  %6 = load ptr, ptr %5, align 8, !tbaa !17
  %7 = tail call ptr @EVP_MD_fetch(ptr noundef %4, ptr noundef nonnull @.str.1, ptr noundef %6) #7
  store ptr %7, ptr %2, align 8, !tbaa !16
  %8 = icmp eq ptr %7, null
  br i1 %8, label %9, label %10

9:                                                ; preds = %1
  tail call void @ERR_new() #7
  tail call void @ERR_set_debug(ptr noundef nonnull @.str, i32 noundef 167, ptr noundef nonnull @__func__.set_digest) #7
  tail call void (i32, i32, ptr, ...) @ERR_set_error(i32 noundef 57, i32 noundef 147, ptr noundef null) #7
  br label %10

10:                                               ; preds = %1, %9
  %.0 = phi i32 [ 0, %9 ], [ 1, %1 ]
  ret i32 %.0
}